; ModuleID = '56/1004.c'
source_filename = "56/1004.c"
target datalayout = "e-m:e-p270:32:32-p271:32:32-p272:64:64-i64:64-f80:128-n8:16:32:64-S128"
target triple = "x86_64-pc-linux-gnu"

@.str = private unnamed_addr constant [3 x i8] c"%d\00", align 1

; Function Attrs: noinline nounwind uwtable
define dso_local i32 @main() #0 {
  %1 = alloca i32, align 4
  %2 = alloca i32, align 4
  %3 = alloca i32, align 4
  %4 = alloca i32, align 4
  store i32 0, i32* %1, align 4
  %5 = call i32 (i8*, ...) @__isoc99_scanf(i8* getelementptr inbounds ([3 x i8], [3 x i8]* @.str, i64 0, i64 0), i32* %2)
  store i32 10, i32* %3, align 4
  br label %6

6:                                                ; preds = %23, %0
  %7 = load i32, i32* %3, align 4
  %8 = icmp slt i32 %7, 1000000
  br i1 %8, label %9, label %26

9:                                                ; preds = %6
  %10 = load i32, i32* %2, align 4
  %11 = load i32, i32* %3, align 4
  %12 = srem i32 %10, %11
  %13 = load i32, i32* %3, align 4
  %14 = sdiv i32 %13, 10
  %15 = sdiv i32 %12, %14
  store i32 %15, i32* %4, align 4
  %16 = load i32, i32* %4, align 4
  %17 = icmp ne i32 %16, 0
  br i1 %17, label %18, label %21

18:                                               ; preds = %9
  %19 = load i32, i32* %4, align 4
  %20 = call i32 (i8*, ...) @printf(i8* getelementptr inbounds ([3 x i8], [3 x i8]* @.str, i64 0, i64 0), i32 %19)
  br label %22

21:                                               ; preds = %9
  store i32 0, i32* %1, align 4
  br label %27

22:                                               ; preds = %18
  br label %23

23:                                               ; preds = %22
  %24 = load i32, i32* %3, align 4
  %25 = mul nsw i32 %24, 10
  store i32 %25, i32* %3, align 4
  br label %6

26:                                               ; preds = %6
  store i32 0, i32* %1, align 4
  br label %27

27:                                               ; preds = %26, %21
  %28 = load i32, i32* %1, align 4
  ret i32 %28
}

declare dso_local i32 @__isoc99_scanf(i8*, ...) #1

declare dso_local i32 @printf(i8*, ...) #1


!llvm.module.flags = !{!0}
!llvm.ident = !{!1}

!0 = !{i32 1, !"wchar_size", i32 4}
!1 = !{!"clang version 10.0.0-4ubuntu1 "}
